; Function Attrs: mustprogress nounwind uwtable
define dso_local void @_ZN14ScopedFilePathD2Ev(ptr noundef nonnull align 8 dereferenceable(33) %0) unnamed_addr #4 align 2 {
  %2 = getelementptr inbounds i8, ptr %0, i64 32
  %3 = load i8, ptr %2, align 8
  %4 = and i8 %3, 1
  %.not = icmp eq i8 %4, 0
  br i1 %.not, label %5, label %8

5:                                                ; preds = %1
  %6 = tail call noundef ptr @_ZNKSt7__cxx1112basic_stringIcSt11char_traitsIcESaIcEE5c_strEv(ptr noundef nonnull align 8 dereferenceable(32) %0) #23
  %7 = tail call i32 @unlink(ptr noundef %6) #23
  br label %8

8:                                                ; preds = %5, %1
  tail call void @_ZNSt7__cxx1112basic_stringIcSt11char_traitsIcESaIcEED1Ev(ptr noundef nonnull align 8 dereferenceable(32) %0) #23
  ret void
}